target datalayout = "e-m:e-p270:32:32-p271:32:32-p272:64:64-i64:64-i128:128-f80:128-n8:16:32:64-S128"
target triple = "x86_64-pc-linux-gnu"

%struct.redisServer = type { i32, i64, ptr, ptr, ptr, i32, i32, i32, i32, i32, ptr, ptr, ptr, ptr, ptr, i32, i32, i32, i32, i64, i32, i32, i32, i32, ptr, i32, i32, [41 x i8], i32, i64, i32, i32, i32, ptr, ptr, i32, i32, i64, ptr, ptr, ptr, ptr, [2 x i32], i32, i32, i32, i32, i32, i32, [16 x ptr], i32, ptr, ptr, i32, [8 x %struct.connListener], i32, %struct.connListener, ptr, ptr, ptr, ptr, ptr, ptr, ptr, ptr, ptr, ptr, i32, ptr, i32, ptr, [3 x %struct.pause_event], [256 x i8], ptr, i64, i32, i32, [128 x i32], i32, i32, i64, i32, i32, i32, i32, i32, i64, i64, i64, i64, i64, i64, i64, i64, i64, i64, double, i64, i64, i64, i64, i64, i64, i64, i64, i64, i64, i64, i64, i64, i64, i64, i64, i64, i64, i64, i64, i64, double, i64, i64, i64, i64, i64, ptr, i64, i64, i64, %struct.malloc_stats, i64, i64, i64, i64, i64, i64, i64, i64, i64, i64, i64, i64, double, [4 x i64], i64, i64, i64, i64, [128 x i64], [128 x i64], i64, i64, [7 x %struct.anon], i64, i64, i64, i64, i64, i64, [4 x %struct.durationStats], i32, i32, i32, i32, i32, i32, i32, i32, i32, i32, i32, i32, i64, i32, i32, i32, i32, i64, i64, i32, i32, i32, i32, i32, ptr, [3 x %struct.clientBufferLimitsConfig], i32, i32, i32, ptr, i32, i32, i32, i32, i32, i32, ptr, ptr, i32, i32, i64, i64, i64, i64, i64, i32, i32, ptr, i32, i32, i64, i64, i64, i64, i64, i32, i32, i64, i32, i32, i32, i32, i32, i32, i32, i32, ptr, i32, i64, i64, i64, i64, i32, ptr, i32, ptr, i32, i32, i32, i64, i64, i64, i64, i32, i32, i32, i32, i32, i32, ptr, i32, i32, ptr, i32, i32, i32, [2 x i32], i32, %struct.redisOpArray, i32, ptr, i32, ptr, i32, i32, i32, i32, i32, i32, i32, [41 x i8], [41 x i8], i64, i64, i64, i64, i32, i32, ptr, i64, i64, %struct.replDataBuf, i64, i64, i32, i32, i32, i32, i32, i32, i32, i32, i32, i64, ptr, i64, ptr, ptr, ptr, i32, i32, ptr, ptr, i32, i32, i32, i64, i64, i64, i64, ptr, ptr, i32, ptr, i64, i32, i32, i32, i64, i32, i32, i32, i32, ptr, i32, i32, [41 x i8], i64, i32, ptr, i32, i32, i64, i64, i32, i32, i32, i32, i32, i64, [3 x i32], i32, i32, i32, [10 x i32], ptr, ptr, i32, i64, ptr, ptr, i32, i32, i32, i32, i64, i64, i64, i64, i64, i64, i64, i64, i64, i64, i32, i32, i64, i64, i32, i64, i64, i64, i64, i64, ptr, ptr, i32, ptr, i32, i32, i32, i32, i64, i64, ptr, ptr, i32, i32, i32, i32, i32, ptr, ptr, ptr, i32, i32, i32, i32, i32, i32, i32, i64, i32, i32, i64, i32, i32, i32, i32, i32, i32, i32, i64, ptr, ptr, i64, ptr, i32, %struct.aclInfo, i32, i64, i32, i32, i32, %struct.redisTLSContextConfig, ptr, ptr, ptr, ptr, ptr, i64, i32, ptr, i32, i32, i32, i64, i32, ptr }
%struct.connListener = type { [16 x i32], i32, ptr, i32, i32, ptr, ptr }
%struct.pause_event = type { i32, i64 }
%struct.malloc_stats = type { i64, i64, i64, i64, i64, i64, i64, i64, i64, i64, i64 }
%struct.anon = type { i64, i64, [16 x i64], i32 }
%struct.durationStats = type { i64, i64, i64 }
%struct.clientBufferLimitsConfig = type { i64, i64, i64 }
%struct.redisOpArray = type { ptr, i32, i32 }
%struct.replDataBuf = type { ptr, i64, i64, i64, i64 }
%struct.aclInfo = type { i64, i64, i64, i64 }
%struct.redisTLSContextConfig = type { ptr, ptr, ptr, ptr, ptr, ptr, ptr, ptr, ptr, ptr, ptr, ptr, i32, i32, i32, i32 }
%struct.client = type { i64, i64, ptr, i8, i8, i8, i8, i32, ptr, ptr, ptr, ptr, ptr, i64, i64, i32, ptr, i32, i32, ptr, i64, ptr, ptr, ptr, ptr, ptr, i32, i32, i64, ptr, i64, ptr, i64, i64, i64, i32, ptr, i64, i64, i32, i32, i32, i32, i64, i64, ptr, i64, i64, i64, i64, i64, i64, i64, i64, [41 x i8], i32, ptr, i32, i32, i64, %struct.multiState, %struct.blockingState, i64, ptr, ptr, ptr, ptr, ptr, ptr, ptr, ptr, ptr, ptr, ptr, ptr, ptr, ptr, i64, ptr, i64, i32, ptr, ptr, ptr, i64, %struct.listNode, i64, i64, i32, i64, ptr }
%struct.multiState = type { ptr, i32, i32, i32, i64, i32 }
%struct.blockingState = type { i32, i64, i32, ptr, i32, i32, i64, ptr, ptr, i64 }
%struct.listNode = type { ptr, ptr, ptr }

@.str.1 = private unnamed_addr constant [13 x i8] c"networking.c\00", align 1
@server = external global %struct.redisServer, align 8
@.str.40 = private unnamed_addr constant [78 x i8] c"Client %s scheduled to be closed ASAP for overcoming of output buffer limits.\00", align 1
@.str.241 = private unnamed_addr constant [36 x i8] c"c->reply_bytes < SIZE_MAX-(1024*64)\00", align 1
@.str.242 = private unnamed_addr constant [57 x i8] c"Client %s closed for overcoming of output buffer limits.\00", align 1

; Function Attrs: inlinehint nounwind uwtable
define internal i32 @clientTypeIsSlave(ptr noundef %0) #4 {
  %2 = alloca i32, align 4
  %3 = alloca ptr, align 8
  store ptr %0, ptr %3, align 8, !tbaa !24
  %4 = load ptr, ptr %3, align 8, !tbaa !24
  %5 = getelementptr inbounds nuw %struct.client, ptr %4, i32 0, i32 1
  %6 = load i64, ptr %5, align 8, !tbaa !104
  %7 = and i64 %6, 1
  %8 = icmp ne i64 %7, 0
  br i1 %8, label %9, label %16

9:                                                ; preds = %1
  %10 = load ptr, ptr %3, align 8, !tbaa !24
  %11 = getelementptr inbounds nuw %struct.client, ptr %10, i32 0, i32 1
  %12 = load i64, ptr %11, align 8, !tbaa !104
  %13 = and i64 %12, 4
  %14 = icmp ne i64 %13, 0
  %15 = xor i1 %14, true
  br label %16

16:                                               ; preds = %9, %1
  %17 = phi i1 [ false, %1 ], [ %15, %9 ]
  %18 = xor i1 %17, true
  %19 = xor i1 %18, true
  %20 = zext i1 %19 to i32
  %21 = sext i32 %20 to i64
  %22 = call i64 @llvm.expect.i64(i64 %21, i64 0)
  %23 = icmp ne i64 %22, 0
  br i1 %23, label %24, label %25

24:                                               ; preds = %16
  store i32 1, ptr %2, align 4
  br label %26

25:                                               ; preds = %16
  store i32 0, ptr %2, align 4
  br label %26

26:                                               ; preds = %25, %24
  %27 = load i32, ptr %2, align 4
  ret i32 %27
}

; Function Attrs: nounwind uwtable
define dso_local i32 @closeClientOnOutputBufferLimitReached(ptr noundef %0, i32 noundef %1) #0 {
  %3 = alloca i32, align 4
  %4 = alloca ptr, align 8
  %5 = alloca i32, align 4
  %6 = alloca ptr, align 8
  store ptr %0, ptr %4, align 8, !tbaa !24
  store i32 %1, ptr %5, align 4, !tbaa !19
  %7 = load ptr, ptr %4, align 8, !tbaa !24
  %8 = getelementptr inbounds nuw %struct.client, ptr %7, i32 0, i32 2
  %9 = load ptr, ptr %8, align 8, !tbaa !75
  %10 = icmp ne ptr %9, null
  br i1 %10, label %12, label %11

11:                                               ; preds = %2
  store i32 0, ptr %3, align 4
  br label %77

12:                                               ; preds = %2
  %13 = load ptr, ptr %4, align 8, !tbaa !24
  %14 = getelementptr inbounds nuw %struct.client, ptr %13, i32 0, i32 30
  %15 = load i64, ptr %14, align 8, !tbaa !127
  %16 = icmp ult i64 %15, -65537
  %17 = xor i1 %16, true
  %18 = xor i1 %17, true
  %19 = zext i1 %18 to i32
  %20 = sext i32 %19 to i64
  %21 = call i64 @llvm.expect.i64(i64 %20, i64 1)
  %22 = icmp ne i64 %21, 0
  br i1 %22, label %23, label %24

23:                                               ; preds = %12
  br label %26

24:                                               ; preds = %12
  call void @_serverAssert(ptr noundef @.str.241, ptr noundef @.str.1, i32 noundef 4272)
  call void @abort() #17
  unreachable

25:                                               ; No predecessors!
  br label %26

26:                                               ; preds = %25, %23
  %27 = load ptr, ptr %4, align 8, !tbaa !24
  %28 = getelementptr inbounds nuw %struct.client, ptr %27, i32 0, i32 30
  %29 = load i64, ptr %28, align 8, !tbaa !127
  %30 = icmp eq i64 %29, 0
  br i1 %30, label %31, label %35

31:                                               ; preds = %26
  %32 = load ptr, ptr %4, align 8, !tbaa !24
  %33 = call i32 @clientTypeIsSlave(ptr noundef %32)
  %34 = icmp ne i32 %33, 0
  br i1 %34, label %35, label %41

35:                                               ; preds = %31, %26
  %36 = load ptr, ptr %4, align 8, !tbaa !24
  %37 = getelementptr inbounds nuw %struct.client, ptr %36, i32 0, i32 1
  %38 = load i64, ptr %37, align 8, !tbaa !104
  %39 = and i64 %38, 1024
  %40 = icmp ne i64 %39, 0
  br i1 %40, label %41, label %42

41:                                               ; preds = %35, %31
  store i32 0, ptr %3, align 4
  br label %77

42:                                               ; preds = %35
  %43 = load ptr, ptr %4, align 8, !tbaa !24
  %44 = call i32 @checkClientOutputBufferLimits(ptr noundef %43)
  %45 = icmp ne i32 %44, 0
  br i1 %45, label %46, label %76

46:                                               ; preds = %42
  call void @llvm.lifetime.start.p0(i64 8, ptr %6) #16
  %47 = call ptr @sdsempty()
  %48 = load ptr, ptr %4, align 8, !tbaa !24
  %49 = call ptr @catClientInfoString(ptr noundef %47, ptr noundef %48)
  store ptr %49, ptr %6, align 8, !tbaa !5
  %50 = load i32, ptr %5, align 4, !tbaa !19
  %51 = icmp ne i32 %50, 0
  br i1 %51, label %52, label %62

52:                                               ; preds = %46
  %53 = load ptr, ptr %4, align 8, !tbaa !24
  call void @freeClientAsync(ptr noundef %53)
  br label %54

54:                                               ; preds = %52
  %55 = load i32, ptr getelementptr inbounds nuw (%struct.redisServer, ptr @server, i32 0, i32 159), align 8, !tbaa !169
  %56 = icmp slt i32 3, %55
  br i1 %56, label %57, label %58

57:                                               ; preds = %54
  br label %61

58:                                               ; preds = %54
  %59 = load ptr, ptr %6, align 8, !tbaa !5
  call void (i32, ptr, ...) @_serverLog(i32 noundef 3, ptr noundef @.str.40, ptr noundef %59)
  br label %60

60:                                               ; preds = %58
  br label %61

61:                                               ; preds = %60, %57
  br label %72

62:                                               ; preds = %46
  %63 = load ptr, ptr %4, align 8, !tbaa !24
  call void @freeClient(ptr noundef %63)
  br label %64

64:                                               ; preds = %62
  %65 = load i32, ptr getelementptr inbounds nuw (%struct.redisServer, ptr @server, i32 0, i32 159), align 8, !tbaa !169
  %66 = icmp slt i32 3, %65
  br i1 %66, label %67, label %68

67:                                               ; preds = %64
  br label %71

68:                                               ; preds = %64
  %69 = load ptr, ptr %6, align 8, !tbaa !5
  call void (i32, ptr, ...) @_serverLog(i32 noundef 3, ptr noundef @.str.242, ptr noundef %69)
  br label %70

70:                                               ; preds = %68
  br label %71

71:                                               ; preds = %70, %67
  br label %72

72:                                               ; preds = %71, %61
  %73 = load ptr, ptr %6, align 8, !tbaa !5
  call void @sdsfree(ptr noundef %73)
  %74 = load i64, ptr getelementptr inbounds nuw (%struct.redisServer, ptr @server, i32 0, i32 150), align 8, !tbaa !170
  %75 = add nsw i64 %74, 1
  store i64 %75, ptr getelementptr inbounds nuw (%struct.redisServer, ptr @server, i32 0, i32 150), align 8, !tbaa !170
  store i32 1, ptr %3, align 4
  call void @llvm.lifetime.end.p0(i64 8, ptr %6) #16
  br label %77

76:                                               ; preds = %42
  store i32 0, ptr %3, align 4
  br label %77

77:                                               ; preds = %76, %72, %41, %11
  %78 = load i32, ptr %3, align 4
  ret i32 %78
}