; Function Attrs: nounwind uwtable
define dso_local range(i32 0, 2) i32 @closeClientOnOutputBufferLimitReached(ptr noundef %0, i32 noundef %1) local_unnamed_addr #0 {
  %3 = getelementptr inbounds nuw i8, ptr %0, i64 16
  %4 = load ptr, ptr %3, align 8, !tbaa !75
  %.not = icmp eq ptr %4, null
  br i1 %.not, label %29, label %5

5:                                                ; preds = %2
  %6 = getelementptr inbounds nuw i8, ptr %0, i64 192
  %7 = load i64, ptr %6, align 8, !tbaa !124
  %8 = icmp ult i64 %7, -65537
  br i1 %8, label %10, label %9, !prof !5

9:                                                ; preds = %5
  tail call void @_serverAssert(ptr noundef nonnull @.str.241, ptr noundef nonnull @.str.1, i32 noundef 4272) #26
  tail call void @abort() #27
  unreachable

10:                                               ; preds = %5
  %11 = icmp ne i64 %7, 0
  %12 = getelementptr i8, ptr %0, i64 8
  %.val = load i64, ptr %12, align 8, !tbaa !86
  %13 = and i64 %.val, 5
  %.not18 = icmp eq i64 %13, 1
  %or.cond = select i1 %11, i1 true, i1 %.not18
  %14 = and i64 %.val, 1024
  %.not15 = icmp eq i64 %14, 0
  %or.cond19 = select i1 %or.cond, i1 %.not15, i1 false
  br i1 %or.cond19, label %15, label %29

15:                                               ; preds = %10
  %16 = tail call i32 @checkClientOutputBufferLimits(ptr noundef nonnull %0)
  %.not16 = icmp eq i32 %16, 0
  br i1 %.not16, label %29, label %17

17:                                               ; preds = %15
  %18 = tail call ptr @sdsempty() #26
  %19 = tail call ptr @catClientInfoString(ptr noundef %18, ptr noundef nonnull %0)
  %.not17 = icmp eq i32 %1, 0
  br i1 %.not17, label %23, label %20

20:                                               ; preds = %17
  tail call void @freeClientAsync(ptr noundef nonnull %0)
  %21 = load i32, ptr getelementptr inbounds nuw (i8, ptr @server, i64 6288), align 8, !tbaa !125
  %22 = icmp sgt i32 %21, 3
  br i1 %22, label %26, label %.sink.split

23:                                               ; preds = %17
  tail call void @freeClient(ptr noundef nonnull %0)
  %24 = load i32, ptr getelementptr inbounds nuw (i8, ptr @server, i64 6288), align 8, !tbaa !125
  %25 = icmp sgt i32 %24, 3
  br i1 %25, label %26, label %.sink.split

.sink.split:                                      ; preds = %23, %20
  %.str.242.sink = phi ptr [ @.str.40, %20 ], [ @.str.242, %23 ]
  tail call void (i32, ptr, ...) @_serverLog(i32 noundef 3, ptr noundef nonnull %.str.242.sink, ptr noundef %19) #26
  br label %26

26:                                               ; preds = %.sink.split, %23, %20
  tail call void @sdsfree(ptr noundef %19) #26
  %27 = load i64, ptr getelementptr inbounds nuw (i8, ptr @server, i64 5072), align 8, !tbaa !126
  %28 = add nsw i64 %27, 1
  store i64 %28, ptr getelementptr inbounds nuw (i8, ptr @server, i64 5072), align 8, !tbaa !126
  br label %29

29:                                               ; preds = %10, %15, %2, %26
  %.0 = phi i32 [ 1, %26 ], [ 0, %2 ], [ 0, %15 ], [ 0, %10 ]
  ret i32 %.0
}